target datalayout = "e-m:e-p270:32:32-p271:32:32-p272:64:64-i64:64-i128:128-f80:128-n8:16:32:64-S128"
target triple = "x86_64-pc-linux-gnu"

%struct.DdManager = type { %struct.DdNode, ptr, ptr, ptr, ptr, ptr, ptr, ptr, i32, i32, double, double, double, i32, i32, i32, i32, i32, i32, ptr, ptr, %struct.DdSubtable, i32, i32, i32, i32, i32, i32, i32, double, i32, i32, i32, ptr, i64, double, i32, ptr, ptr, ptr, ptr, ptr, ptr, ptr, i32, ptr, ptr, ptr, ptr, ptr, ptr, i32, i32, i32, double, i32, i32, i32, i32, double, double, i32, i32, i32, i32, i32, i32, i32, i32, i32, ptr, ptr, i32, i32, i32, i32, i32, i32, ptr, ptr, ptr, ptr, ptr, ptr, ptr, ptr, i32, i64, i64, i64, i32, i64, i64, double, double, double, double, double, double, i32, ptr, ptr, i64 }
%struct.DdNode = type { i32, i32, ptr, %union.anon, i64 }
%union.anon = type { %struct.DdChildren }
%struct.DdChildren = type { ptr, ptr }
%struct.DdSubtable = type { ptr, i32, i32, i32, i32, i32, i32, i32, i32, i32, i32, i32 }

; Function Attrs: nounwind uwtable
define ptr @cuddZddDiff(ptr noundef %0, ptr noundef %1, ptr noundef %2) #0 {
  %4 = alloca ptr, align 8
  %5 = alloca ptr, align 8
  %6 = alloca ptr, align 8
  %7 = alloca ptr, align 8
  %8 = alloca i32, align 4
  %9 = alloca i32, align 4
  %10 = alloca ptr, align 8
  %11 = alloca ptr, align 8
  %12 = alloca ptr, align 8
  %13 = alloca ptr, align 8
  %14 = alloca ptr, align 8
  %15 = alloca i32, align 4
  store ptr %0, ptr %5, align 8, !tbaa !3
  store ptr %1, ptr %6, align 8, !tbaa !8
  store ptr %2, ptr %7, align 8, !tbaa !8
  call void @llvm.lifetime.start.p0(i64 4, ptr %8) #3
  call void @llvm.lifetime.start.p0(i64 4, ptr %9) #3
  call void @llvm.lifetime.start.p0(i64 8, ptr %10) #3
  %16 = load ptr, ptr %5, align 8, !tbaa !3
  %17 = getelementptr inbounds nuw %struct.DdManager, ptr %16, i32 0, i32 2
  %18 = load ptr, ptr %17, align 8, !tbaa !29
  store ptr %18, ptr %10, align 8, !tbaa !8
  call void @llvm.lifetime.start.p0(i64 8, ptr %11) #3
  call void @llvm.lifetime.start.p0(i64 8, ptr %12) #3
  call void @llvm.lifetime.start.p0(i64 8, ptr %13) #3
  call void @llvm.lifetime.start.p0(i64 8, ptr %14) #3
  %19 = load ptr, ptr %5, align 8, !tbaa !3
  store ptr %19, ptr %14, align 8, !tbaa !3
  %20 = load ptr, ptr %6, align 8, !tbaa !8
  %21 = load ptr, ptr %10, align 8, !tbaa !8
  %22 = icmp eq ptr %20, %21
  br i1 %22, label %23, label %25

23:                                               ; preds = %3
  %24 = load ptr, ptr %10, align 8, !tbaa !8
  store ptr %24, ptr %4, align 8
  store i32 1, ptr %15, align 4
  br label %230

25:                                               ; preds = %3
  %26 = load ptr, ptr %7, align 8, !tbaa !8
  %27 = load ptr, ptr %10, align 8, !tbaa !8
  %28 = icmp eq ptr %26, %27
  br i1 %28, label %29, label %31

29:                                               ; preds = %25
  %30 = load ptr, ptr %6, align 8, !tbaa !8
  store ptr %30, ptr %4, align 8
  store i32 1, ptr %15, align 4
  br label %230

31:                                               ; preds = %25
  %32 = load ptr, ptr %6, align 8, !tbaa !8
  %33 = load ptr, ptr %7, align 8, !tbaa !8
  %34 = icmp eq ptr %32, %33
  br i1 %34, label %35, label %37

35:                                               ; preds = %31
  %36 = load ptr, ptr %10, align 8, !tbaa !8
  store ptr %36, ptr %4, align 8
  store i32 1, ptr %15, align 4
  br label %230

37:                                               ; preds = %31
  %38 = load ptr, ptr %14, align 8, !tbaa !3
  %39 = load ptr, ptr %6, align 8, !tbaa !8
  %40 = load ptr, ptr %7, align 8, !tbaa !8
  %41 = call ptr @cuddCacheLookup2Zdd(ptr noundef %38, ptr noundef @cuddZddDiff, ptr noundef %39, ptr noundef %40)
  store ptr %41, ptr %13, align 8, !tbaa !8
  %42 = load ptr, ptr %13, align 8, !tbaa !8
  %43 = icmp ne ptr %42, null
  br i1 %43, label %44, label %49

44:                                               ; preds = %37
  %45 = load ptr, ptr %13, align 8, !tbaa !8
  %46 = icmp ne ptr %45, inttoptr (i64 1 to ptr)
  br i1 %46, label %47, label %49

47:                                               ; preds = %44
  %48 = load ptr, ptr %13, align 8, !tbaa !8
  store ptr %48, ptr %4, align 8
  store i32 1, ptr %15, align 4
  br label %230

49:                                               ; preds = %44, %37
  %50 = load ptr, ptr %6, align 8, !tbaa !8
  %51 = getelementptr inbounds nuw %struct.DdNode, ptr %50, i32 0, i32 0
  %52 = load i32, ptr %51, align 8, !tbaa !30
  %53 = icmp eq i32 %52, 2147483647
  br i1 %53, label %54, label %58

54:                                               ; preds = %49
  %55 = load ptr, ptr %6, align 8, !tbaa !8
  %56 = getelementptr inbounds nuw %struct.DdNode, ptr %55, i32 0, i32 0
  %57 = load i32, ptr %56, align 8, !tbaa !30
  store i32 %57, ptr %8, align 4, !tbaa !32
  br label %68

58:                                               ; preds = %49
  %59 = load ptr, ptr %5, align 8, !tbaa !3
  %60 = getelementptr inbounds nuw %struct.DdManager, ptr %59, i32 0, i32 38
  %61 = load ptr, ptr %60, align 8, !tbaa !31
  %62 = load ptr, ptr %6, align 8, !tbaa !8
  %63 = getelementptr inbounds nuw %struct.DdNode, ptr %62, i32 0, i32 0
  %64 = load i32, ptr %63, align 8, !tbaa !30
  %65 = zext i32 %64 to i64
  %66 = getelementptr inbounds nuw i32, ptr %61, i64 %65
  %67 = load i32, ptr %66, align 4, !tbaa !32
  store i32 %67, ptr %8, align 4, !tbaa !32
  br label %68

68:                                               ; preds = %58, %54
  %69 = load ptr, ptr %7, align 8, !tbaa !8
  %70 = getelementptr inbounds nuw %struct.DdNode, ptr %69, i32 0, i32 0
  %71 = load i32, ptr %70, align 8, !tbaa !30
  %72 = icmp eq i32 %71, 2147483647
  br i1 %72, label %73, label %77

73:                                               ; preds = %68
  %74 = load ptr, ptr %7, align 8, !tbaa !8
  %75 = getelementptr inbounds nuw %struct.DdNode, ptr %74, i32 0, i32 0
  %76 = load i32, ptr %75, align 8, !tbaa !30
  store i32 %76, ptr %9, align 4, !tbaa !32
  br label %87

77:                                               ; preds = %68
  %78 = load ptr, ptr %5, align 8, !tbaa !3
  %79 = getelementptr inbounds nuw %struct.DdManager, ptr %78, i32 0, i32 38
  %80 = load ptr, ptr %79, align 8, !tbaa !31
  %81 = load ptr, ptr %7, align 8, !tbaa !8
  %82 = getelementptr inbounds nuw %struct.DdNode, ptr %81, i32 0, i32 0
  %83 = load i32, ptr %82, align 8, !tbaa !30
  %84 = zext i32 %83 to i64
  %85 = getelementptr inbounds nuw i32, ptr %80, i64 %84
  %86 = load i32, ptr %85, align 4, !tbaa !32
  store i32 %86, ptr %9, align 4, !tbaa !32
  br label %87

87:                                               ; preds = %77, %73
  %88 = load i32, ptr %8, align 4, !tbaa !32
  %89 = load i32, ptr %9, align 4, !tbaa !32
  %90 = icmp slt i32 %88, %89
  br i1 %90, label %91, label %133

91:                                               ; preds = %87
  %92 = load ptr, ptr %5, align 8, !tbaa !3
  %93 = load ptr, ptr %6, align 8, !tbaa !8
  %94 = getelementptr inbounds nuw %struct.DdNode, ptr %93, i32 0, i32 3
  %95 = getelementptr inbounds nuw %struct.DdChildren, ptr %94, i32 0, i32 1
  %96 = load ptr, ptr %95, align 8, !tbaa !35
  %97 = load ptr, ptr %7, align 8, !tbaa !8
  %98 = call ptr @cuddZddDiff(ptr noundef %92, ptr noundef %96, ptr noundef %97)
  store ptr %98, ptr %12, align 8, !tbaa !8
  %99 = load ptr, ptr %12, align 8, !tbaa !8
  %100 = icmp eq ptr %99, null
  br i1 %100, label %101, label %102

101:                                              ; preds = %91
  store ptr null, ptr %4, align 8
  store i32 1, ptr %15, align 4
  br label %230

102:                                              ; preds = %91
  %103 = load ptr, ptr %12, align 8, !tbaa !8
  %104 = ptrtoint ptr %103 to i64
  %105 = and i64 %104, -2
  %106 = inttoptr i64 %105 to ptr
  %107 = getelementptr inbounds nuw %struct.DdNode, ptr %106, i32 0, i32 1
  %108 = load i32, ptr %107, align 4, !tbaa !36
  %109 = add i32 %108, 1
  store i32 %109, ptr %107, align 4, !tbaa !36
  %110 = load ptr, ptr %5, align 8, !tbaa !3
  %111 = load ptr, ptr %6, align 8, !tbaa !8
  %112 = getelementptr inbounds nuw %struct.DdNode, ptr %111, i32 0, i32 0
  %113 = load i32, ptr %112, align 8, !tbaa !30
  %114 = load ptr, ptr %6, align 8, !tbaa !8
  %115 = getelementptr inbounds nuw %struct.DdNode, ptr %114, i32 0, i32 3
  %116 = getelementptr inbounds nuw %struct.DdChildren, ptr %115, i32 0, i32 0
  %117 = load ptr, ptr %116, align 8, !tbaa !35
  %118 = load ptr, ptr %12, align 8, !tbaa !8
  %119 = call ptr @cuddZddGetNode(ptr noundef %110, i32 noundef %113, ptr noundef %117, ptr noundef %118)
  store ptr %119, ptr %13, align 8, !tbaa !8
  %120 = load ptr, ptr %13, align 8, !tbaa !8
  %121 = icmp eq ptr %120, null
  br i1 %121, label %122, label %125

122:                                              ; preds = %102
  %123 = load ptr, ptr %14, align 8, !tbaa !3
  %124 = load ptr, ptr %12, align 8, !tbaa !8
  call void @Cudd_RecursiveDerefZdd(ptr noundef %123, ptr noundef %124)
  store ptr null, ptr %4, align 8
  store i32 1, ptr %15, align 4
  br label %230

125:                                              ; preds = %102
  %126 = load ptr, ptr %12, align 8, !tbaa !8
  %127 = ptrtoint ptr %126 to i64
  %128 = and i64 %127, -2
  %129 = inttoptr i64 %128 to ptr
  %130 = getelementptr inbounds nuw %struct.DdNode, ptr %129, i32 0, i32 1
  %131 = load i32, ptr %130, align 4, !tbaa !36
  %132 = add i32 %131, -1
  store i32 %132, ptr %130, align 4, !tbaa !36
  br label %224

133:                                              ; preds = %87
  %134 = load i32, ptr %8, align 4, !tbaa !32
  %135 = load i32, ptr %9, align 4, !tbaa !32
  %136 = icmp sgt i32 %134, %135
  br i1 %136, label %137, label %149

137:                                              ; preds = %133
  %138 = load ptr, ptr %5, align 8, !tbaa !3
  %139 = load ptr, ptr %6, align 8, !tbaa !8
  %140 = load ptr, ptr %7, align 8, !tbaa !8
  %141 = getelementptr inbounds nuw %struct.DdNode, ptr %140, i32 0, i32 3
  %142 = getelementptr inbounds nuw %struct.DdChildren, ptr %141, i32 0, i32 1
  %143 = load ptr, ptr %142, align 8, !tbaa !35
  %144 = call ptr @cuddZddDiff(ptr noundef %138, ptr noundef %139, ptr noundef %143)
  store ptr %144, ptr %13, align 8, !tbaa !8
  %145 = load ptr, ptr %13, align 8, !tbaa !8
  %146 = icmp eq ptr %145, null
  br i1 %146, label %147, label %148

147:                                              ; preds = %137
  store ptr null, ptr %4, align 8
  store i32 1, ptr %15, align 4
  br label %230

148:                                              ; preds = %137
  br label %223

149:                                              ; preds = %133
  %150 = load ptr, ptr %5, align 8, !tbaa !3
  %151 = load ptr, ptr %6, align 8, !tbaa !8
  %152 = getelementptr inbounds nuw %struct.DdNode, ptr %151, i32 0, i32 3
  %153 = getelementptr inbounds nuw %struct.DdChildren, ptr %152, i32 0, i32 0
  %154 = load ptr, ptr %153, align 8, !tbaa !35
  %155 = load ptr, ptr %7, align 8, !tbaa !8
  %156 = getelementptr inbounds nuw %struct.DdNode, ptr %155, i32 0, i32 3
  %157 = getelementptr inbounds nuw %struct.DdChildren, ptr %156, i32 0, i32 0
  %158 = load ptr, ptr %157, align 8, !tbaa !35
  %159 = call ptr @cuddZddDiff(ptr noundef %150, ptr noundef %154, ptr noundef %158)
  store ptr %159, ptr %11, align 8, !tbaa !8
  %160 = load ptr, ptr %11, align 8, !tbaa !8
  %161 = icmp eq ptr %160, null
  br i1 %161, label %162, label %163

162:                                              ; preds = %149
  store ptr null, ptr %4, align 8
  store i32 1, ptr %15, align 4
  br label %230

163:                                              ; preds = %149
  %164 = load ptr, ptr %11, align 8, !tbaa !8
  %165 = ptrtoint ptr %164 to i64
  %166 = and i64 %165, -2
  %167 = inttoptr i64 %166 to ptr
  %168 = getelementptr inbounds nuw %struct.DdNode, ptr %167, i32 0, i32 1
  %169 = load i32, ptr %168, align 4, !tbaa !36
  %170 = add i32 %169, 1
  store i32 %170, ptr %168, align 4, !tbaa !36
  %171 = load ptr, ptr %5, align 8, !tbaa !3
  %172 = load ptr, ptr %6, align 8, !tbaa !8
  %173 = getelementptr inbounds nuw %struct.DdNode, ptr %172, i32 0, i32 3
  %174 = getelementptr inbounds nuw %struct.DdChildren, ptr %173, i32 0, i32 1
  %175 = load ptr, ptr %174, align 8, !tbaa !35
  %176 = load ptr, ptr %7, align 8, !tbaa !8
  %177 = getelementptr inbounds nuw %struct.DdNode, ptr %176, i32 0, i32 3
  %178 = getelementptr inbounds nuw %struct.DdChildren, ptr %177, i32 0, i32 1
  %179 = load ptr, ptr %178, align 8, !tbaa !35
  %180 = call ptr @cuddZddDiff(ptr noundef %171, ptr noundef %175, ptr noundef %179)
  store ptr %180, ptr %12, align 8, !tbaa !8
  %181 = load ptr, ptr %12, align 8, !tbaa !8
  %182 = icmp eq ptr %181, null
  br i1 %182, label %183, label %186

183:                                              ; preds = %163
  %184 = load ptr, ptr %14, align 8, !tbaa !3
  %185 = load ptr, ptr %11, align 8, !tbaa !8
  call void @Cudd_RecursiveDerefZdd(ptr noundef %184, ptr noundef %185)
  store ptr null, ptr %4, align 8
  store i32 1, ptr %15, align 4
  br label %230

186:                                              ; preds = %163
  %187 = load ptr, ptr %12, align 8, !tbaa !8
  %188 = ptrtoint ptr %187 to i64
  %189 = and i64 %188, -2
  %190 = inttoptr i64 %189 to ptr
  %191 = getelementptr inbounds nuw %struct.DdNode, ptr %190, i32 0, i32 1
  %192 = load i32, ptr %191, align 4, !tbaa !36
  %193 = add i32 %192, 1
  store i32 %193, ptr %191, align 4, !tbaa !36
  %194 = load ptr, ptr %5, align 8, !tbaa !3
  %195 = load ptr, ptr %6, align 8, !tbaa !8
  %196 = getelementptr inbounds nuw %struct.DdNode, ptr %195, i32 0, i32 0
  %197 = load i32, ptr %196, align 8, !tbaa !30
  %198 = load ptr, ptr %11, align 8, !tbaa !8
  %199 = load ptr, ptr %12, align 8, !tbaa !8
  %200 = call ptr @cuddZddGetNode(ptr noundef %194, i32 noundef %197, ptr noundef %198, ptr noundef %199)
  store ptr %200, ptr %13, align 8, !tbaa !8
  %201 = load ptr, ptr %13, align 8, !tbaa !8
  %202 = icmp eq ptr %201, null
  br i1 %202, label %203, label %208

203:                                              ; preds = %186
  %204 = load ptr, ptr %14, align 8, !tbaa !3
  %205 = load ptr, ptr %11, align 8, !tbaa !8
  call void @Cudd_RecursiveDerefZdd(ptr noundef %204, ptr noundef %205)
  %206 = load ptr, ptr %14, align 8, !tbaa !3
  %207 = load ptr, ptr %12, align 8, !tbaa !8
  call void @Cudd_RecursiveDerefZdd(ptr noundef %206, ptr noundef %207)
  store ptr null, ptr %4, align 8
  store i32 1, ptr %15, align 4
  br label %230

208:                                              ; preds = %186
  %209 = load ptr, ptr %11, align 8, !tbaa !8
  %210 = ptrtoint ptr %209 to i64
  %211 = and i64 %210, -2
  %212 = inttoptr i64 %211 to ptr
  %213 = getelementptr inbounds nuw %struct.DdNode, ptr %212, i32 0, i32 1
  %214 = load i32, ptr %213, align 4, !tbaa !36
  %215 = add i32 %214, -1
  store i32 %215, ptr %213, align 4, !tbaa !36
  %216 = load ptr, ptr %12, align 8, !tbaa !8
  %217 = ptrtoint ptr %216 to i64
  %218 = and i64 %217, -2
  %219 = inttoptr i64 %218 to ptr
  %220 = getelementptr inbounds nuw %struct.DdNode, ptr %219, i32 0, i32 1
  %221 = load i32, ptr %220, align 4, !tbaa !36
  %222 = add i32 %221, -1
  store i32 %222, ptr %220, align 4, !tbaa !36
  br label %223

223:                                              ; preds = %208, %148
  br label %224

224:                                              ; preds = %223, %125
  %225 = load ptr, ptr %14, align 8, !tbaa !3
  %226 = load ptr, ptr %6, align 8, !tbaa !8
  %227 = load ptr, ptr %7, align 8, !tbaa !8
  %228 = load ptr, ptr %13, align 8, !tbaa !8
  call void @cuddCacheInsert2(ptr noundef %225, ptr noundef @cuddZddDiff, ptr noundef %226, ptr noundef %227, ptr noundef %228)
  %229 = load ptr, ptr %13, align 8, !tbaa !8
  store ptr %229, ptr %4, align 8
  store i32 1, ptr %15, align 4
  br label %230

230:                                              ; preds = %224, %203, %183, %162, %147, %122, %101, %47, %35, %29, %23
  call void @llvm.lifetime.end.p0(i64 8, ptr %14) #3
  call void @llvm.lifetime.end.p0(i64 8, ptr %13) #3
  call void @llvm.lifetime.end.p0(i64 8, ptr %12) #3
  call void @llvm.lifetime.end.p0(i64 8, ptr %11) #3
  call void @llvm.lifetime.end.p0(i64 8, ptr %10) #3
  call void @llvm.lifetime.end.p0(i64 4, ptr %9) #3
  call void @llvm.lifetime.end.p0(i64 4, ptr %8) #3
  %231 = load ptr, ptr %4, align 8
  ret ptr %231
}