; Function Attrs: nounwind uwtable
define ptr @cuddZddDiff(ptr noundef %0, ptr noundef %1, ptr noundef %2) #0 {
  %4 = getelementptr inbounds nuw i8, ptr %0, i64 48
  %5 = load ptr, ptr %4, align 8, !tbaa !26
  %6 = icmp eq ptr %1, %5
  br i1 %6, label %99, label %7

7:                                                ; preds = %3
  %8 = icmp eq ptr %2, %5
  br i1 %8, label %99, label %9

9:                                                ; preds = %7
  %10 = icmp eq ptr %1, %2
  br i1 %10, label %99, label %11

11:                                               ; preds = %9
  %12 = tail call ptr @cuddCacheLookup2Zdd(ptr noundef nonnull %0, ptr noundef nonnull @cuddZddDiff, ptr noundef %1, ptr noundef %2) #3
  %switch = icmp ult ptr %12, inttoptr (i64 2 to ptr)
  br i1 %switch, label %13, label %99

13:                                               ; preds = %11
  %14 = load i32, ptr %1, align 8, !tbaa !27
  %15 = icmp eq i32 %14, 2147483647
  br i1 %15, label %22, label %16

16:                                               ; preds = %13
  %17 = getelementptr inbounds nuw i8, ptr %0, i64 320
  %18 = load ptr, ptr %17, align 8, !tbaa !28
  %19 = zext i32 %14 to i64
  %20 = getelementptr inbounds nuw i32, ptr %18, i64 %19
  %21 = load i32, ptr %20, align 4, !tbaa !29
  br label %22

22:                                               ; preds = %13, %16
  %.076 = phi i32 [ %21, %16 ], [ 2147483647, %13 ]
  %23 = load i32, ptr %2, align 8, !tbaa !27
  %24 = icmp eq i32 %23, 2147483647
  br i1 %24, label %31, label %25

25:                                               ; preds = %22
  %26 = getelementptr inbounds nuw i8, ptr %0, i64 320
  %27 = load ptr, ptr %26, align 8, !tbaa !28
  %28 = zext i32 %23 to i64
  %29 = getelementptr inbounds nuw i32, ptr %27, i64 %28
  %30 = load i32, ptr %29, align 4, !tbaa !29
  br label %31

31:                                               ; preds = %22, %25
  %.077 = phi i32 [ %30, %25 ], [ 2147483647, %22 ]
  %32 = icmp slt i32 %.076, %.077
  br i1 %32, label %33, label %54

33:                                               ; preds = %31
  %34 = getelementptr inbounds nuw i8, ptr %1, i64 24
  %35 = load ptr, ptr %34, align 8, !tbaa !32
  %36 = tail call ptr @cuddZddDiff(ptr noundef nonnull %0, ptr noundef %35, ptr noundef nonnull %2)
  %37 = icmp eq ptr %36, null
  br i1 %37, label %99, label %38

38:                                               ; preds = %33
  %39 = getelementptr inbounds nuw i8, ptr %1, i64 16
  %40 = ptrtoint ptr %36 to i64
  %41 = and i64 %40, -2
  %42 = inttoptr i64 %41 to ptr
  %43 = getelementptr inbounds nuw i8, ptr %42, i64 4
  %44 = load i32, ptr %43, align 4, !tbaa !33
  %45 = add i32 %44, 1
  store i32 %45, ptr %43, align 4, !tbaa !33
  %46 = load i32, ptr %1, align 8, !tbaa !27
  %47 = load ptr, ptr %39, align 8, !tbaa !32
  %48 = tail call ptr @cuddZddGetNode(ptr noundef nonnull %0, i32 noundef %46, ptr noundef %47, ptr noundef nonnull %36) #3
  %49 = icmp eq ptr %48, null
  br i1 %49, label %50, label %51

50:                                               ; preds = %38
  tail call void @Cudd_RecursiveDerefZdd(ptr noundef nonnull %0, ptr noundef nonnull %36) #3
  br label %99

51:                                               ; preds = %38
  %52 = load i32, ptr %43, align 4, !tbaa !33
  %53 = add i32 %52, -1
  store i32 %53, ptr %43, align 4, !tbaa !33
  br label %98

54:                                               ; preds = %31
  %55 = icmp sgt i32 %.076, %.077
  br i1 %55, label %56, label %61

56:                                               ; preds = %54
  %57 = getelementptr inbounds nuw i8, ptr %2, i64 24
  %58 = load ptr, ptr %57, align 8, !tbaa !32
  %59 = tail call ptr @cuddZddDiff(ptr noundef nonnull %0, ptr noundef nonnull %1, ptr noundef %58)
  %60 = icmp eq ptr %59, null
  br i1 %60, label %99, label %98

61:                                               ; preds = %54
  %62 = getelementptr inbounds nuw i8, ptr %1, i64 16
  %63 = load ptr, ptr %62, align 8, !tbaa !32
  %64 = getelementptr inbounds nuw i8, ptr %2, i64 16
  %65 = load ptr, ptr %64, align 8, !tbaa !32
  %66 = tail call ptr @cuddZddDiff(ptr noundef nonnull %0, ptr noundef %63, ptr noundef %65)
  %67 = icmp eq ptr %66, null
  br i1 %67, label %99, label %68

68:                                               ; preds = %61
  %69 = ptrtoint ptr %66 to i64
  %70 = and i64 %69, -2
  %71 = inttoptr i64 %70 to ptr
  %72 = getelementptr inbounds nuw i8, ptr %71, i64 4
  %73 = load i32, ptr %72, align 4, !tbaa !33
  %74 = add i32 %73, 1
  store i32 %74, ptr %72, align 4, !tbaa !33
  %75 = getelementptr inbounds nuw i8, ptr %1, i64 24
  %76 = load ptr, ptr %75, align 8, !tbaa !32
  %77 = getelementptr inbounds nuw i8, ptr %2, i64 24
  %78 = load ptr, ptr %77, align 8, !tbaa !32
  %79 = tail call ptr @cuddZddDiff(ptr noundef nonnull %0, ptr noundef %76, ptr noundef %78)
  %80 = icmp eq ptr %79, null
  br i1 %80, label %81, label %82

81:                                               ; preds = %68
  tail call void @Cudd_RecursiveDerefZdd(ptr noundef nonnull %0, ptr noundef nonnull %66) #3
  br label %99

82:                                               ; preds = %68
  %83 = ptrtoint ptr %79 to i64
  %84 = and i64 %83, -2
  %85 = inttoptr i64 %84 to ptr
  %86 = getelementptr inbounds nuw i8, ptr %85, i64 4
  %87 = load i32, ptr %86, align 4, !tbaa !33
  %88 = add i32 %87, 1
  store i32 %88, ptr %86, align 4, !tbaa !33
  %89 = load i32, ptr %1, align 8, !tbaa !27
  %90 = tail call ptr @cuddZddGetNode(ptr noundef nonnull %0, i32 noundef %89, ptr noundef nonnull %66, ptr noundef nonnull %79) #3
  %91 = icmp eq ptr %90, null
  br i1 %91, label %92, label %93

92:                                               ; preds = %82
  tail call void @Cudd_RecursiveDerefZdd(ptr noundef nonnull %0, ptr noundef nonnull %66) #3
  tail call void @Cudd_RecursiveDerefZdd(ptr noundef nonnull %0, ptr noundef nonnull %79) #3
  br label %99

93:                                               ; preds = %82
  %94 = load i32, ptr %72, align 4, !tbaa !33
  %95 = add i32 %94, -1
  store i32 %95, ptr %72, align 4, !tbaa !33
  %96 = load i32, ptr %86, align 4, !tbaa !33
  %97 = add i32 %96, -1
  store i32 %97, ptr %86, align 4, !tbaa !33
  br label %98

98:                                               ; preds = %93, %56, %51
  %.075 = phi ptr [ %48, %51 ], [ %59, %56 ], [ %90, %93 ]
  tail call void @cuddCacheInsert2(ptr noundef nonnull %0, ptr noundef nonnull @cuddZddDiff, ptr noundef nonnull %1, ptr noundef nonnull %2, ptr noundef nonnull %.075) #3
  br label %99

99:                                               ; preds = %11, %61, %56, %33, %9, %7, %3, %98, %92, %81, %50
  %.0 = phi ptr [ null, %50 ], [ %.075, %98 ], [ null, %81 ], [ null, %92 ], [ %5, %3 ], [ %1, %7 ], [ %5, %9 ], [ %12, %11 ], [ null, %33 ], [ null, %56 ], [ null, %61 ]
  ret ptr %.0
}